; Function Attrs: mustprogress uwtable
define internal fastcc i64 @_ZN6AssimpL9ReadChunkEPNS_12StreamReaderILb0ELb0EEE(ptr noundef nonnull captures(none) %0) unnamed_addr #0 personality ptr @__gxx_personality_v0 {
  %2 = getelementptr inbounds nuw i8, ptr %0, i64 24
  %3 = load ptr, ptr %2, align 8
  %4 = getelementptr inbounds nuw i8, ptr %3, i64 4
  %5 = getelementptr inbounds nuw i8, ptr %0, i64 40
  %6 = load ptr, ptr %5, align 8
  %7 = icmp ugt ptr %4, %6
  br i1 %7, label %8, label %_ZN6Assimp12StreamReaderILb0ELb0EE5GetU4Ev.exit

8:                                                ; preds = %1
  %9 = tail call ptr @__cxa_allocate_exception(i64 16) #25
  invoke void @_ZN17DeadlyImportErrorC2EPKc(ptr noundef nonnull align 8 dereferenceable(16) %9, ptr noundef nonnull @.str.13)
          to label %10 unwind label %11

10:                                               ; preds = %8
  tail call void @__cxa_throw(ptr nonnull %9, ptr nonnull @_ZTI17DeadlyImportError, ptr nonnull @_ZNSt13runtime_errorD2Ev) #27
  unreachable

common.resume:                                    ; preds = %19, %11
  %.sink = phi ptr [ %17, %19 ], [ %9, %11 ]
  %common.resume.op = phi { ptr, i32 } [ %20, %19 ], [ %12, %11 ]
  tail call void @__cxa_free_exception(ptr nonnull %.sink) #25
  resume { ptr, i32 } %common.resume.op

11:                                               ; preds = %8
  %12 = landingpad { ptr, i32 }
          cleanup
  br label %common.resume

_ZN6Assimp12StreamReaderILb0ELb0EE5GetU4Ev.exit:  ; preds = %1
  %13 = load i32, ptr %3, align 1
  store ptr %4, ptr %2, align 8
  %14 = getelementptr inbounds nuw i8, ptr %3, i64 8
  %15 = icmp ugt ptr %14, %6
  br i1 %15, label %16, label %_ZN6Assimp12StreamReaderILb0ELb0EE5GetU4Ev.exit3

16:                                               ; preds = %_ZN6Assimp12StreamReaderILb0ELb0EE5GetU4Ev.exit
  %17 = tail call ptr @__cxa_allocate_exception(i64 16) #25
  invoke void @_ZN17DeadlyImportErrorC2EPKc(ptr noundef nonnull align 8 dereferenceable(16) %17, ptr noundef nonnull @.str.13)
          to label %18 unwind label %19

18:                                               ; preds = %16
  tail call void @__cxa_throw(ptr nonnull %17, ptr nonnull @_ZTI17DeadlyImportError, ptr nonnull @_ZNSt13runtime_errorD2Ev) #27
  unreachable

19:                                               ; preds = %16
  %20 = landingpad { ptr, i32 }
          cleanup
  br label %common.resume

_ZN6Assimp12StreamReaderILb0ELb0EE5GetU4Ev.exit3: ; preds = %_ZN6Assimp12StreamReaderILb0ELb0EE5GetU4Ev.exit
  %21 = load i32, ptr %4, align 1
  store ptr %14, ptr %2, align 8
  %22 = zext i32 %21 to i64
  %23 = ptrtoint ptr %6 to i64
  %24 = ptrtoint ptr %14 to i64
  %25 = sub i64 %23, %24
  %26 = and i64 %25, 4294967295
  %27 = icmp samesign ult i64 %26, %22
  br i1 %27, label %28, label %30

28:                                               ; preds = %_ZN6Assimp12StreamReaderILb0ELb0EE5GetU4Ev.exit3
  %29 = tail call noundef ptr @_ZN6Assimp13DefaultLogger3getEv()
  tail call void @_ZN6Assimp6Logger5errorEPKc(ptr noundef nonnull align 8 dereferenceable(12) %29, ptr noundef nonnull @.str.12)
  br label %30

30:                                               ; preds = %28, %_ZN6Assimp12StreamReaderILb0ELb0EE5GetU4Ev.exit3
  %.sroa.0.sroa.0.0.insert.insert = tail call i32 @llvm.bswap.i32(i32 %13)
  %.sroa.10.0.insert.shift = shl nuw i64 %22, 32
  %.sroa.0.0.insert.ext = zext i32 %.sroa.0.sroa.0.0.insert.insert to i64
  %.sroa.0.0.insert.insert = or disjoint i64 %.sroa.10.0.insert.shift, %.sroa.0.0.insert.ext
  ret i64 %.sroa.0.0.insert.insert
}